; Function Attrs: nounwind uwtable
define noalias nonnull ptr @l___private_Lean_Widget_InteractiveDiagnostic_0__Lean_Widget_mkPPContext(ptr noundef readonly captures(none) %0, ptr noundef readonly captures(none) %1) local_unnamed_addr #0 {
  %3 = getelementptr inbounds nuw i8, ptr %1, i64 8
  %4 = load ptr, ptr %3, align 8, !tbaa !9
  %5 = getelementptr inbounds nuw i8, ptr %1, i64 16
  %6 = load ptr, ptr %5, align 8, !tbaa !9
  %7 = getelementptr inbounds nuw i8, ptr %1, i64 24
  %8 = load ptr, ptr %7, align 8, !tbaa !9
  %9 = getelementptr inbounds nuw i8, ptr %1, i64 32
  %10 = load ptr, ptr %9, align 8, !tbaa !9
  %11 = getelementptr inbounds nuw i8, ptr %0, i64 8
  %12 = load ptr, ptr %11, align 8, !tbaa !9
  %13 = getelementptr inbounds nuw i8, ptr %0, i64 16
  %14 = load ptr, ptr %13, align 8, !tbaa !9
  %15 = ptrtoint ptr %14 to i64
  %16 = and i64 %15, 1
  %.not = icmp eq i64 %16, 0
  br i1 %.not, label %17, label %lean_inc.exit29

17:                                               ; preds = %2
  %.val.i = load i32, ptr %14, align 4, !tbaa !4
  %18 = icmp sgt i32 %.val.i, 0
  br i1 %18, label %19, label %21, !prof !15

19:                                               ; preds = %17
  %20 = add nuw i32 %.val.i, 1
  store i32 %20, ptr %14, align 4, !tbaa !4
  br label %lean_inc.exit29

21:                                               ; preds = %17
  %.not.i = icmp eq i32 %.val.i, 0
  br i1 %.not.i, label %lean_inc.exit29, label %22

22:                                               ; preds = %21
  tail call void @lean_inc_ref_cold(ptr noundef nonnull %14) #7
  br label %lean_inc.exit29

lean_inc.exit29:                                  ; preds = %22, %21, %19, %2
  %23 = ptrtoint ptr %12 to i64
  %24 = and i64 %23, 1
  %.not45 = icmp eq i64 %24, 0
  br i1 %.not45, label %25, label %lean_inc.exit28

25:                                               ; preds = %lean_inc.exit29
  %.val.i30 = load i32, ptr %12, align 4, !tbaa !4
  %26 = icmp sgt i32 %.val.i30, 0
  br i1 %26, label %27, label %29, !prof !15

27:                                               ; preds = %25
  %28 = add nuw i32 %.val.i30, 1
  store i32 %28, ptr %12, align 4, !tbaa !4
  br label %lean_inc.exit28

29:                                               ; preds = %25
  %.not.i31 = icmp eq i32 %.val.i30, 0
  br i1 %.not.i31, label %lean_inc.exit28, label %30

30:                                               ; preds = %29
  tail call void @lean_inc_ref_cold(ptr noundef nonnull %12) #7
  br label %lean_inc.exit28

lean_inc.exit28:                                  ; preds = %30, %29, %27, %lean_inc.exit29
  %31 = ptrtoint ptr %10 to i64
  %32 = and i64 %31, 1
  %.not46 = icmp eq i64 %32, 0
  br i1 %.not46, label %33, label %lean_inc.exit27

33:                                               ; preds = %lean_inc.exit28
  %.val.i33 = load i32, ptr %10, align 4, !tbaa !4
  %34 = icmp sgt i32 %.val.i33, 0
  br i1 %34, label %35, label %37, !prof !15

35:                                               ; preds = %33
  %36 = add nuw i32 %.val.i33, 1
  store i32 %36, ptr %10, align 4, !tbaa !4
  br label %lean_inc.exit27

37:                                               ; preds = %33
  %.not.i34 = icmp eq i32 %.val.i33, 0
  br i1 %.not.i34, label %lean_inc.exit27, label %38

38:                                               ; preds = %37
  tail call void @lean_inc_ref_cold(ptr noundef nonnull %10) #7
  br label %lean_inc.exit27

lean_inc.exit27:                                  ; preds = %38, %37, %35, %lean_inc.exit28
  %39 = ptrtoint ptr %8 to i64
  %40 = and i64 %39, 1
  %.not47 = icmp eq i64 %40, 0
  br i1 %.not47, label %41, label %lean_inc.exit26

41:                                               ; preds = %lean_inc.exit27
  %.val.i36 = load i32, ptr %8, align 4, !tbaa !4
  %42 = icmp sgt i32 %.val.i36, 0
  br i1 %42, label %43, label %45, !prof !15

43:                                               ; preds = %41
  %44 = add nuw i32 %.val.i36, 1
  store i32 %44, ptr %8, align 4, !tbaa !4
  br label %lean_inc.exit26

45:                                               ; preds = %41
  %.not.i37 = icmp eq i32 %.val.i36, 0
  br i1 %.not.i37, label %lean_inc.exit26, label %46

46:                                               ; preds = %45
  tail call void @lean_inc_ref_cold(ptr noundef nonnull %8) #7
  br label %lean_inc.exit26

lean_inc.exit26:                                  ; preds = %46, %45, %43, %lean_inc.exit27
  %47 = ptrtoint ptr %6 to i64
  %48 = and i64 %47, 1
  %.not48 = icmp eq i64 %48, 0
  br i1 %.not48, label %49, label %lean_inc.exit25

49:                                               ; preds = %lean_inc.exit26
  %.val.i39 = load i32, ptr %6, align 4, !tbaa !4
  %50 = icmp sgt i32 %.val.i39, 0
  br i1 %50, label %51, label %53, !prof !15

51:                                               ; preds = %49
  %52 = add nuw i32 %.val.i39, 1
  store i32 %52, ptr %6, align 4, !tbaa !4
  br label %lean_inc.exit25

53:                                               ; preds = %49
  %.not.i40 = icmp eq i32 %.val.i39, 0
  br i1 %.not.i40, label %lean_inc.exit25, label %54

54:                                               ; preds = %53
  tail call void @lean_inc_ref_cold(ptr noundef nonnull %6) #7
  br label %lean_inc.exit25

lean_inc.exit25:                                  ; preds = %54, %53, %51, %lean_inc.exit26
  %55 = ptrtoint ptr %4 to i64
  %56 = and i64 %55, 1
  %.not49 = icmp eq i64 %56, 0
  br i1 %.not49, label %57, label %lean_inc.exit

57:                                               ; preds = %lean_inc.exit25
  %.val.i42 = load i32, ptr %4, align 4, !tbaa !4
  %58 = icmp sgt i32 %.val.i42, 0
  br i1 %58, label %59, label %61, !prof !15

59:                                               ; preds = %57
  %60 = add nuw i32 %.val.i42, 1
  store i32 %60, ptr %4, align 4, !tbaa !4
  br label %lean_inc.exit

61:                                               ; preds = %57
  %.not.i43 = icmp eq i32 %.val.i42, 0
  br i1 %.not.i43, label %lean_inc.exit, label %62

62:                                               ; preds = %61
  tail call void @lean_inc_ref_cold(ptr noundef nonnull %4) #7
  br label %lean_inc.exit

lean_inc.exit:                                    ; preds = %62, %61, %59, %lean_inc.exit25
  tail call void @lean_inc_heartbeat() #7
  %63 = tail call noalias ptr @mi_malloc_small(i64 noundef 56) #7
  %64 = icmp eq ptr %63, null
  br i1 %64, label %65, label %lean_alloc_ctor.exit

65:                                               ; preds = %lean_inc.exit
  tail call void @lean_internal_panic_out_of_memory() #8
  unreachable

lean_alloc_ctor.exit:                             ; preds = %lean_inc.exit
  %66 = getelementptr inbounds nuw i8, ptr %63, i64 4
  store i32 1, ptr %63, align 4, !tbaa !4
  store i32 393272, ptr %66, align 4
  %67 = getelementptr inbounds nuw i8, ptr %63, i64 8
  store ptr %4, ptr %67, align 8, !tbaa !9
  %68 = getelementptr inbounds nuw i8, ptr %63, i64 16
  store ptr %6, ptr %68, align 8, !tbaa !9
  %69 = getelementptr inbounds nuw i8, ptr %63, i64 24
  store ptr %8, ptr %69, align 8, !tbaa !9
  %70 = getelementptr inbounds nuw i8, ptr %63, i64 32
  store ptr %10, ptr %70, align 8, !tbaa !9
  %71 = getelementptr inbounds nuw i8, ptr %63, i64 40
  store ptr %12, ptr %71, align 8, !tbaa !9
  %72 = getelementptr inbounds nuw i8, ptr %63, i64 48
  store ptr %14, ptr %72, align 8, !tbaa !9
  ret ptr %63
}